target datalayout = "e-m:e-p270:32:32-p271:32:32-p272:64:64-i64:64-i128:128-f80:128-n8:16:32:64-S128"
target triple = "x86_64-pc-linux-gnu"

%struct.sqlite3_index_info = type { i32, ptr, i32, ptr, ptr, i32, ptr, i32, i32, double, i64, i32, i64 }
%struct.sqlite3_index_constraint = type { i32, i8, i8, i32 }
%struct.sqlite3_index_constraint_usage = type { i32, i8 }

; Function Attrs: nounwind uwtable
define internal i32 @completionBestIndex(ptr noundef %0, ptr noundef %1) #0 {
  %3 = alloca ptr, align 8
  %4 = alloca ptr, align 8
  %5 = alloca i32, align 4
  %6 = alloca i32, align 4
  %7 = alloca i32, align 4
  %8 = alloca i32, align 4
  %9 = alloca i32, align 4
  %10 = alloca ptr, align 8
  store ptr %0, ptr %3, align 8, !tbaa !612
  store ptr %1, ptr %4, align 8, !tbaa !614
  call void @llvm.lifetime.start.p0(i64 4, ptr %5) #14
  call void @llvm.lifetime.start.p0(i64 4, ptr %6) #14
  store i32 0, ptr %6, align 4, !tbaa !3
  call void @llvm.lifetime.start.p0(i64 4, ptr %7) #14
  store i32 -1, ptr %7, align 4, !tbaa !3
  call void @llvm.lifetime.start.p0(i64 4, ptr %8) #14
  store i32 -1, ptr %8, align 4, !tbaa !3
  call void @llvm.lifetime.start.p0(i64 4, ptr %9) #14
  store i32 0, ptr %9, align 4, !tbaa !3
  call void @llvm.lifetime.start.p0(i64 8, ptr %10) #14
  %11 = load ptr, ptr %4, align 8, !tbaa !614
  %12 = getelementptr inbounds nuw %struct.sqlite3_index_info, ptr %11, i32 0, i32 1
  %13 = load ptr, ptr %12, align 8, !tbaa !616
  store ptr %13, ptr %10, align 8, !tbaa !621
  store i32 0, ptr %5, align 4, !tbaa !3
  br label %14

14:                                               ; preds = %47, %2
  %15 = load i32, ptr %5, align 4, !tbaa !3
  %16 = load ptr, ptr %4, align 8, !tbaa !614
  %17 = getelementptr inbounds nuw %struct.sqlite3_index_info, ptr %16, i32 0, i32 0
  %18 = load i32, ptr %17, align 8, !tbaa !622
  %19 = icmp slt i32 %15, %18
  br i1 %19, label %20, label %52

20:                                               ; preds = %14
  %21 = load ptr, ptr %10, align 8, !tbaa !621
  %22 = getelementptr inbounds nuw %struct.sqlite3_index_constraint, ptr %21, i32 0, i32 2
  %23 = load i8, ptr %22, align 1, !tbaa !625
  %24 = zext i8 %23 to i32
  %25 = icmp eq i32 %24, 0
  br i1 %25, label %26, label %27

26:                                               ; preds = %20
  br label %47

27:                                               ; preds = %20
  %28 = load ptr, ptr %10, align 8, !tbaa !621
  %29 = getelementptr inbounds nuw %struct.sqlite3_index_constraint, ptr %28, i32 0, i32 1
  %30 = load i8, ptr %29, align 4, !tbaa !623
  %31 = zext i8 %30 to i32
  %32 = icmp ne i32 %31, 2
  br i1 %32, label %33, label %34

33:                                               ; preds = %27
  br label %47

34:                                               ; preds = %27
  %35 = load ptr, ptr %10, align 8, !tbaa !621
  %36 = getelementptr inbounds nuw %struct.sqlite3_index_constraint, ptr %35, i32 0, i32 0
  %37 = load i32, ptr %36, align 4, !tbaa !626
  switch i32 %37, label %46 [
    i32 1, label %38
    i32 2, label %42
  ]

38:                                               ; preds = %34
  %39 = load i32, ptr %5, align 4, !tbaa !3
  store i32 %39, ptr %7, align 4, !tbaa !3
  %40 = load i32, ptr %6, align 4, !tbaa !3
  %41 = or i32 %40, 1
  store i32 %41, ptr %6, align 4, !tbaa !3
  br label %46

42:                                               ; preds = %34
  %43 = load i32, ptr %5, align 4, !tbaa !3
  store i32 %43, ptr %8, align 4, !tbaa !3
  %44 = load i32, ptr %6, align 4, !tbaa !3
  %45 = or i32 %44, 2
  store i32 %45, ptr %6, align 4, !tbaa !3
  br label %46

46:                                               ; preds = %34, %42, %38
  br label %47

47:                                               ; preds = %46, %33, %26
  %48 = load i32, ptr %5, align 4, !tbaa !3
  %49 = add nsw i32 %48, 1
  store i32 %49, ptr %5, align 4, !tbaa !3
  %50 = load ptr, ptr %10, align 8, !tbaa !621
  %51 = getelementptr inbounds nuw %struct.sqlite3_index_constraint, ptr %50, i32 1
  store ptr %51, ptr %10, align 8, !tbaa !621
  br label %14, !llvm.loop !756

52:                                               ; preds = %14
  %53 = load i32, ptr %7, align 4, !tbaa !3
  %54 = icmp sge i32 %53, 0
  br i1 %54, label %55, label %72

55:                                               ; preds = %52
  %56 = load i32, ptr %9, align 4, !tbaa !3
  %57 = add nsw i32 %56, 1
  store i32 %57, ptr %9, align 4, !tbaa !3
  %58 = load ptr, ptr %4, align 8, !tbaa !614
  %59 = getelementptr inbounds nuw %struct.sqlite3_index_info, ptr %58, i32 0, i32 4
  %60 = load ptr, ptr %59, align 8, !tbaa !628
  %61 = load i32, ptr %7, align 4, !tbaa !3
  %62 = sext i32 %61 to i64
  %63 = getelementptr inbounds %struct.sqlite3_index_constraint_usage, ptr %60, i64 %62
  %64 = getelementptr inbounds nuw %struct.sqlite3_index_constraint_usage, ptr %63, i32 0, i32 0
  store i32 %57, ptr %64, align 4, !tbaa !629
  %65 = load ptr, ptr %4, align 8, !tbaa !614
  %66 = getelementptr inbounds nuw %struct.sqlite3_index_info, ptr %65, i32 0, i32 4
  %67 = load ptr, ptr %66, align 8, !tbaa !628
  %68 = load i32, ptr %7, align 4, !tbaa !3
  %69 = sext i32 %68 to i64
  %70 = getelementptr inbounds %struct.sqlite3_index_constraint_usage, ptr %67, i64 %69
  %71 = getelementptr inbounds nuw %struct.sqlite3_index_constraint_usage, ptr %70, i32 0, i32 1
  store i8 1, ptr %71, align 4, !tbaa !631
  br label %72

72:                                               ; preds = %55, %52
  %73 = load i32, ptr %8, align 4, !tbaa !3
  %74 = icmp sge i32 %73, 0
  br i1 %74, label %75, label %92

75:                                               ; preds = %72
  %76 = load i32, ptr %9, align 4, !tbaa !3
  %77 = add nsw i32 %76, 1
  store i32 %77, ptr %9, align 4, !tbaa !3
  %78 = load ptr, ptr %4, align 8, !tbaa !614
  %79 = getelementptr inbounds nuw %struct.sqlite3_index_info, ptr %78, i32 0, i32 4
  %80 = load ptr, ptr %79, align 8, !tbaa !628
  %81 = load i32, ptr %8, align 4, !tbaa !3
  %82 = sext i32 %81 to i64
  %83 = getelementptr inbounds %struct.sqlite3_index_constraint_usage, ptr %80, i64 %82
  %84 = getelementptr inbounds nuw %struct.sqlite3_index_constraint_usage, ptr %83, i32 0, i32 0
  store i32 %77, ptr %84, align 4, !tbaa !629
  %85 = load ptr, ptr %4, align 8, !tbaa !614
  %86 = getelementptr inbounds nuw %struct.sqlite3_index_info, ptr %85, i32 0, i32 4
  %87 = load ptr, ptr %86, align 8, !tbaa !628
  %88 = load i32, ptr %8, align 4, !tbaa !3
  %89 = sext i32 %88 to i64
  %90 = getelementptr inbounds %struct.sqlite3_index_constraint_usage, ptr %87, i64 %89
  %91 = getelementptr inbounds nuw %struct.sqlite3_index_constraint_usage, ptr %90, i32 0, i32 1
  store i8 1, ptr %91, align 4, !tbaa !631
  br label %92

92:                                               ; preds = %75, %72
  %93 = load i32, ptr %6, align 4, !tbaa !3
  %94 = load ptr, ptr %4, align 8, !tbaa !614
  %95 = getelementptr inbounds nuw %struct.sqlite3_index_info, ptr %94, i32 0, i32 5
  store i32 %93, ptr %95, align 8, !tbaa !644
  %96 = load i32, ptr %9, align 4, !tbaa !3
  %97 = mul nsw i32 1000, %96
  %98 = sitofp i32 %97 to double
  %99 = fsub double 5.000000e+03, %98
  %100 = load ptr, ptr %4, align 8, !tbaa !614
  %101 = getelementptr inbounds nuw %struct.sqlite3_index_info, ptr %100, i32 0, i32 9
  store double %99, ptr %101, align 8, !tbaa !636
  %102 = load i32, ptr %9, align 4, !tbaa !3
  %103 = mul nsw i32 100, %102
  %104 = sub nsw i32 500, %103
  %105 = sext i32 %104 to i64
  %106 = load ptr, ptr %4, align 8, !tbaa !614
  %107 = getelementptr inbounds nuw %struct.sqlite3_index_info, ptr %106, i32 0, i32 10
  store i64 %105, ptr %107, align 8, !tbaa !637
  call void @llvm.lifetime.end.p0(i64 8, ptr %10) #14
  call void @llvm.lifetime.end.p0(i64 4, ptr %9) #14
  call void @llvm.lifetime.end.p0(i64 4, ptr %8) #14
  call void @llvm.lifetime.end.p0(i64 4, ptr %7) #14
  call void @llvm.lifetime.end.p0(i64 4, ptr %6) #14
  call void @llvm.lifetime.end.p0(i64 4, ptr %5) #14
  ret i32 0
}