; Function Attrs: nofree norecurse nosync nounwind memory(readwrite, inaccessiblemem: none) uwtable
define internal noundef i32 @completionBestIndex(ptr readnone captures(none) %0, ptr noundef captures(none) %1) #32 {
  %3 = load i32, ptr %1, align 8, !tbaa !719
  %4 = icmp sgt i32 %3, 0
  br i1 %4, label %.lr.ph.preheader, label %.thread

.lr.ph.preheader:                                 ; preds = %2
  %5 = getelementptr inbounds nuw i8, ptr %1, i64 8
  %6 = load ptr, ptr %5, align 8, !tbaa !724
  br label %.lr.ph

.lr.ph:                                           ; preds = %.lr.ph.preheader, %19
  %.041 = phi ptr [ %21, %19 ], [ %6, %.lr.ph.preheader ]
  %.03040 = phi i32 [ %.131, %19 ], [ -1, %.lr.ph.preheader ]
  %.03239 = phi i32 [ %.133, %19 ], [ -1, %.lr.ph.preheader ]
  %.03438 = phi i32 [ %.135, %19 ], [ 0, %.lr.ph.preheader ]
  %.03637 = phi i32 [ %20, %19 ], [ 0, %.lr.ph.preheader ]
  %7 = getelementptr inbounds nuw i8, ptr %.041, i64 5
  %8 = load i8, ptr %7, align 1, !tbaa !727
  %9 = icmp eq i8 %8, 0
  br i1 %9, label %19, label %10

10:                                               ; preds = %.lr.ph
  %11 = getelementptr inbounds nuw i8, ptr %.041, i64 4
  %12 = load i8, ptr %11, align 4, !tbaa !725
  %.not = icmp eq i8 %12, 2
  br i1 %.not, label %13, label %19

13:                                               ; preds = %10
  %14 = load i32, ptr %.041, align 4, !tbaa !728
  switch i32 %14, label %19 [
    i32 1, label %15
    i32 2, label %17
  ]

15:                                               ; preds = %13
  %16 = or i32 %.03438, 1
  br label %19

17:                                               ; preds = %13
  %18 = or i32 %.03438, 2
  br label %19

19:                                               ; preds = %13, %15, %17, %10, %.lr.ph
  %.135 = phi i32 [ %.03438, %.lr.ph ], [ %.03438, %10 ], [ %.03438, %13 ], [ %18, %17 ], [ %16, %15 ]
  %.133 = phi i32 [ %.03239, %.lr.ph ], [ %.03239, %10 ], [ %.03239, %13 ], [ %.03239, %17 ], [ %.03637, %15 ]
  %.131 = phi i32 [ %.03040, %.lr.ph ], [ %.03040, %10 ], [ %.03040, %13 ], [ %.03637, %17 ], [ %.03040, %15 ]
  %20 = add nuw nsw i32 %.03637, 1
  %21 = getelementptr inbounds nuw i8, ptr %.041, i64 12
  %exitcond.not = icmp eq i32 %20, %3
  br i1 %exitcond.not, label %._crit_edge, label %.lr.ph, !llvm.loop !802

._crit_edge:                                      ; preds = %19
  %22 = icmp sgt i32 %.133, -1
  br i1 %22, label %23, label %29

23:                                               ; preds = %._crit_edge
  %24 = getelementptr inbounds nuw i8, ptr %1, i64 32
  %25 = load ptr, ptr %24, align 8, !tbaa !730
  %26 = zext nneg i32 %.133 to i64
  %27 = getelementptr inbounds nuw %struct.sqlite3_index_constraint_usage, ptr %25, i64 %26
  store i32 1, ptr %27, align 4, !tbaa !731
  %28 = getelementptr inbounds nuw %struct.sqlite3_index_constraint_usage, ptr %25, i64 %26, i32 1
  store i8 1, ptr %28, align 4, !tbaa !733
  br label %29

29:                                               ; preds = %23, %._crit_edge
  %.029 = phi i32 [ 1, %23 ], [ 0, %._crit_edge ]
  %30 = icmp sgt i32 %.131, -1
  br i1 %30, label %31, label %.thread

31:                                               ; preds = %29
  %32 = add nuw nsw i32 %.029, 1
  %33 = getelementptr inbounds nuw i8, ptr %1, i64 32
  %34 = load ptr, ptr %33, align 8, !tbaa !730
  %35 = zext nneg i32 %.131 to i64
  %36 = getelementptr inbounds nuw %struct.sqlite3_index_constraint_usage, ptr %34, i64 %35
  store i32 %32, ptr %36, align 4, !tbaa !731
  %37 = getelementptr inbounds nuw %struct.sqlite3_index_constraint_usage, ptr %34, i64 %35, i32 1
  store i8 1, ptr %37, align 4, !tbaa !733
  br label %.thread

.thread:                                          ; preds = %2, %31, %29
  %.034.lcssa4752 = phi i32 [ %.135, %31 ], [ %.135, %29 ], [ 0, %2 ]
  %.1 = phi i32 [ %32, %31 ], [ %.029, %29 ], [ 0, %2 ]
  %38 = getelementptr inbounds nuw i8, ptr %1, i64 40
  store i32 %.034.lcssa4752, ptr %38, align 8, !tbaa !746
  %39 = mul nuw nsw i32 %.1, 1000
  %40 = uitofp nneg i32 %39 to double
  %41 = fsub double 5.000000e+03, %40
  %42 = getelementptr inbounds nuw i8, ptr %1, i64 64
  store double %41, ptr %42, align 8, !tbaa !738
  %.neg = mul nsw i32 %.1, -100
  %43 = add nsw i32 %.neg, 500
  %44 = zext nneg i32 %43 to i64
  %45 = getelementptr inbounds nuw i8, ptr %1, i64 72
  store i64 %44, ptr %45, align 8, !tbaa !739
  ret i32 0
}